; Function Attrs: nounwind uwtable
define ptr @l_List_toString___at_Lean_Meta_RecursorInfo_instToString___spec__5(ptr noundef %0) local_unnamed_addr #0 {
  %2 = ptrtoint ptr %0 to i64
  %3 = and i64 %2, 1
  %.not.i38 = icmp eq i64 %3, 0
  br i1 %.not.i38, label %7, label %4

4:                                                ; preds = %1
  %5 = lshr i64 %2, 1
  %6 = trunc i64 %5 to i32
  br label %lean_obj_tag.exit

7:                                                ; preds = %1
  %8 = getelementptr i8, ptr %0, i64 4
  %.val.i = load i32, ptr %8, align 4
  %9 = lshr i32 %.val.i, 24
  br label %lean_obj_tag.exit

lean_obj_tag.exit:                                ; preds = %4, %7
  %.0.i = phi i32 [ %6, %4 ], [ %9, %7 ]
  %10 = icmp eq i32 %.0.i, 0
  br i1 %10, label %11, label %13

11:                                               ; preds = %lean_obj_tag.exit
  %12 = load ptr, ptr @l_List_toString___at_Lean_Meta_RecursorInfo_instToString___spec__1___closed__1, align 8, !tbaa !4
  br label %90

13:                                               ; preds = %lean_obj_tag.exit
  %14 = getelementptr inbounds nuw i8, ptr %0, i64 8
  %15 = getelementptr inbounds nuw i8, ptr %0, i64 16
  %16 = load ptr, ptr %15, align 8, !tbaa !4
  %17 = ptrtoint ptr %16 to i64
  %18 = and i64 %17, 1
  %.not = icmp eq i64 %18, 0
  br i1 %.not, label %19, label %lean_inc.exit28

19:                                               ; preds = %13
  %.val.i39 = load i32, ptr %16, align 4, !tbaa !8
  %20 = icmp sgt i32 %.val.i39, 0
  br i1 %20, label %21, label %23, !prof !11

21:                                               ; preds = %19
  %22 = add nuw i32 %.val.i39, 1
  store i32 %22, ptr %16, align 4, !tbaa !8
  br label %27

23:                                               ; preds = %19
  %.not.i40 = icmp eq i32 %.val.i39, 0
  br i1 %.not.i40, label %27, label %24

24:                                               ; preds = %23
  tail call void @lean_inc_ref_cold(ptr noundef nonnull %16) #6
  br label %27

lean_inc.exit28:                                  ; preds = %13
  %25 = lshr i64 %17, 1
  %26 = trunc i64 %25 to i32
  br label %lean_obj_tag.exit44

27:                                               ; preds = %24, %23, %21
  %28 = getelementptr i8, ptr %16, i64 4
  %.val.i43 = load i32, ptr %28, align 4
  %29 = lshr i32 %.val.i43, 24
  br label %lean_obj_tag.exit44

lean_obj_tag.exit44:                              ; preds = %lean_inc.exit28, %27
  %.0.i42 = phi i32 [ %26, %lean_inc.exit28 ], [ %29, %27 ]
  %30 = icmp eq i32 %.0.i42, 0
  %31 = load ptr, ptr %14, align 8, !tbaa !4
  %32 = ptrtoint ptr %31 to i64
  %33 = and i64 %32, 1
  %.not55 = icmp eq i64 %33, 0
  br i1 %30, label %34, label %62

34:                                               ; preds = %lean_obj_tag.exit44
  br i1 %.not55, label %35, label %lean_inc.exit27

35:                                               ; preds = %34
  %.val.i45 = load i32, ptr %31, align 4, !tbaa !8
  %36 = icmp sgt i32 %.val.i45, 0
  br i1 %36, label %37, label %39, !prof !11

37:                                               ; preds = %35
  %38 = add nuw i32 %.val.i45, 1
  store i32 %38, ptr %31, align 4, !tbaa !8
  br label %lean_inc.exit27

39:                                               ; preds = %35
  %.not.i46 = icmp eq i32 %.val.i45, 0
  br i1 %.not.i46, label %lean_inc.exit27, label %40

40:                                               ; preds = %39
  tail call void @lean_inc_ref_cold(ptr noundef nonnull %31) #6
  br label %lean_inc.exit27

lean_inc.exit27:                                  ; preds = %40, %39, %37, %34
  br i1 %.not.i38, label %41, label %lean_dec.exit31

41:                                               ; preds = %lean_inc.exit27
  %42 = load i32, ptr %0, align 4, !tbaa !8
  %43 = icmp sgt i32 %42, 1
  br i1 %43, label %44, label %46, !prof !11

44:                                               ; preds = %41
  %45 = add nsw i32 %42, -1
  store i32 %45, ptr %0, align 4, !tbaa !8
  br label %lean_dec.exit31

46:                                               ; preds = %41
  %.not.i = icmp eq i32 %42, 0
  br i1 %.not.i, label %lean_dec.exit31, label %47

47:                                               ; preds = %46
  tail call void @lean_dec_ref_cold(ptr noundef nonnull %0) #6
  br label %lean_dec.exit31

lean_dec.exit31:                                  ; preds = %47, %46, %44, %lean_inc.exit27
  %48 = tail call ptr @l___private_Init_Data_Repr_0__Nat_reprFast(ptr noundef %31) #6
  %49 = load ptr, ptr @l_List_toString___at_Lean_Meta_RecursorInfo_instToString___spec__1___closed__2, align 8, !tbaa !4
  %50 = tail call ptr @lean_string_append(ptr noundef %49, ptr noundef %48) #6
  %51 = ptrtoint ptr %48 to i64
  %52 = and i64 %51, 1
  %.not57 = icmp eq i64 %52, 0
  br i1 %.not57, label %53, label %lean_dec.exit30

53:                                               ; preds = %lean_dec.exit31
  %54 = load i32, ptr %48, align 4, !tbaa !8
  %55 = icmp sgt i32 %54, 1
  br i1 %55, label %56, label %58, !prof !11

56:                                               ; preds = %53
  %57 = add nsw i32 %54, -1
  store i32 %57, ptr %48, align 4, !tbaa !8
  br label %lean_dec.exit30

58:                                               ; preds = %53
  %.not.i32 = icmp eq i32 %54, 0
  br i1 %.not.i32, label %lean_dec.exit30, label %59

59:                                               ; preds = %58
  tail call void @lean_dec_ref_cold(ptr noundef nonnull %48) #6
  br label %lean_dec.exit30

lean_dec.exit30:                                  ; preds = %59, %58, %56, %lean_dec.exit31
  %60 = load ptr, ptr @l_List_toString___at_Lean_Meta_RecursorInfo_instToString___spec__1___closed__4, align 8, !tbaa !4
  %61 = tail call ptr @lean_string_append(ptr noundef %50, ptr noundef %60) #6
  br label %90

62:                                               ; preds = %lean_obj_tag.exit44
  br i1 %.not55, label %63, label %lean_inc.exit

63:                                               ; preds = %62
  %.val.i48 = load i32, ptr %31, align 4, !tbaa !8
  %64 = icmp sgt i32 %.val.i48, 0
  br i1 %64, label %65, label %67, !prof !11

65:                                               ; preds = %63
  %66 = add nuw i32 %.val.i48, 1
  store i32 %66, ptr %31, align 4, !tbaa !8
  br label %lean_inc.exit

67:                                               ; preds = %63
  %.not.i49 = icmp eq i32 %.val.i48, 0
  br i1 %.not.i49, label %lean_inc.exit, label %68

68:                                               ; preds = %67
  tail call void @lean_inc_ref_cold(ptr noundef nonnull %31) #6
  br label %lean_inc.exit

lean_inc.exit:                                    ; preds = %68, %67, %65, %62
  br i1 %.not.i38, label %69, label %lean_dec.exit29

69:                                               ; preds = %lean_inc.exit
  %70 = load i32, ptr %0, align 4, !tbaa !8
  %71 = icmp sgt i32 %70, 1
  br i1 %71, label %72, label %74, !prof !11

72:                                               ; preds = %69
  %73 = add nsw i32 %70, -1
  store i32 %73, ptr %0, align 4, !tbaa !8
  br label %lean_dec.exit29

74:                                               ; preds = %69
  %.not.i34 = icmp eq i32 %70, 0
  br i1 %.not.i34, label %lean_dec.exit29, label %75

75:                                               ; preds = %74
  tail call void @lean_dec_ref_cold(ptr noundef nonnull %0) #6
  br label %lean_dec.exit29

lean_dec.exit29:                                  ; preds = %75, %74, %72, %lean_inc.exit
  %76 = tail call ptr @l___private_Init_Data_Repr_0__Nat_reprFast(ptr noundef %31) #6
  %77 = load ptr, ptr @l_List_toString___at_Lean_Meta_RecursorInfo_instToString___spec__1___closed__2, align 8, !tbaa !4
  %78 = tail call ptr @lean_string_append(ptr noundef %77, ptr noundef %76) #6
  %79 = ptrtoint ptr %76 to i64
  %80 = and i64 %79, 1
  %.not54 = icmp eq i64 %80, 0
  br i1 %.not54, label %81, label %lean_dec.exit

81:                                               ; preds = %lean_dec.exit29
  %82 = load i32, ptr %76, align 4, !tbaa !8
  %83 = icmp sgt i32 %82, 1
  br i1 %83, label %84, label %86, !prof !11

84:                                               ; preds = %81
  %85 = add nsw i32 %82, -1
  store i32 %85, ptr %76, align 4, !tbaa !8
  br label %lean_dec.exit

86:                                               ; preds = %81
  %.not.i36 = icmp eq i32 %82, 0
  br i1 %.not.i36, label %lean_dec.exit, label %87

87:                                               ; preds = %86
  tail call void @lean_dec_ref_cold(ptr noundef nonnull %76) #6
  br label %lean_dec.exit

lean_dec.exit:                                    ; preds = %87, %86, %84, %lean_dec.exit29
  %88 = tail call ptr @l_List_foldl___at_Lean_Meta_RecursorInfo_instToString___spec__6(ptr noundef %78, ptr noundef %16)
  %89 = tail call ptr @lean_string_push(ptr noundef %88, i32 noundef 93) #6
  br label %90

90:                                               ; preds = %lean_dec.exit30, %lean_dec.exit, %11
  %.0 = phi ptr [ %12, %11 ], [ %61, %lean_dec.exit30 ], [ %89, %lean_dec.exit ]
  ret ptr %.0
}